target datalayout = "e-m:e-p270:32:32-p271:32:32-p272:64:64-i64:64-i128:128-f80:128-n8:16:32:64-S128"
target triple = "x86_64-unknown-linux-gnu"

%struct.QEMUTimerListGroup = type { [4 x ptr] }

; Function Attrs: nounwind sspstrong uwtable
define dso_local zeroext i1 @timerlistgroup_run_timers(ptr noundef %tlg) #0 {
entry:
  %tlg.addr = alloca ptr, align 8
  %type = alloca i32, align 4
  %progress = alloca i8, align 1
  store ptr %tlg, ptr %tlg.addr, align 8
  store i8 0, ptr %progress, align 1
  store i32 0, ptr %type, align 4
  br label %for.cond

for.cond:                                         ; preds = %for.inc, %entry
  %0 = load i32, ptr %type, align 4
  %cmp = icmp ult i32 %0, 4
  br i1 %cmp, label %for.body, label %for.end

for.body:                                         ; preds = %for.cond
  %1 = load ptr, ptr %tlg.addr, align 8
  %tl = getelementptr inbounds %struct.QEMUTimerListGroup, ptr %1, i32 0, i32 0
  %2 = load i32, ptr %type, align 4
  %idxprom = zext i32 %2 to i64
  %arrayidx = getelementptr [4 x ptr], ptr %tl, i64 0, i64 %idxprom
  %3 = load ptr, ptr %arrayidx, align 8
  %call = call zeroext i1 @timerlist_run_timers(ptr noundef %3)
  %conv = zext i1 %call to i32
  %4 = load i8, ptr %progress, align 1
  %tobool = trunc i8 %4 to i1
  %conv1 = zext i1 %tobool to i32
  %or = or i32 %conv1, %conv
  %tobool2 = icmp ne i32 %or, 0
  %frombool = zext i1 %tobool2 to i8
  store i8 %frombool, ptr %progress, align 1
  br label %for.inc

for.inc:                                          ; preds = %for.body
  %5 = load i32, ptr %type, align 4
  %inc = add i32 %5, 1
  store i32 %inc, ptr %type, align 4
  br label %for.cond, !llvm.loop !16

for.end:                                          ; preds = %for.cond
  %6 = load i8, ptr %progress, align 1
  %tobool3 = trunc i8 %6 to i1
  ret i1 %tobool3
}