; Function Attrs: nounwind sspstrong uwtable
define dso_local zeroext i1 @timerlistgroup_run_timers(ptr noundef readonly captures(none) %tlg) local_unnamed_addr #0 {
entry:
  br label %for.body

for.body:                                         ; preds = %entry, %for.body
  %indvars.iv = phi i64 [ 0, %entry ], [ %indvars.iv.next, %for.body ]
  %progress.06 = phi i1 [ false, %entry ], [ %or4, %for.body ]
  %arrayidx = getelementptr [4 x ptr], ptr %tlg, i64 0, i64 %indvars.iv
  %0 = load ptr, ptr %arrayidx, align 8
  %call = tail call zeroext i1 @timerlist_run_timers(ptr noundef %0)
  %or4 = or i1 %progress.06, %call
  %indvars.iv.next = add nuw nsw i64 %indvars.iv, 1
  %exitcond.not = icmp eq i64 %indvars.iv.next, 4
  br i1 %exitcond.not, label %for.end, label %for.body, !llvm.loop !13

for.end:                                          ; preds = %for.body
  ret i1 %or4
}